target datalayout = "e-m:e-p270:32:32-p271:32:32-p272:64:64-i64:64-i128:128-f80:128-n8:16:32:64-S128"
target triple = "x86_64-pc-linux-gnu"

@c_debug = internal global i32 0, align 4
@.str.396 = private unnamed_addr constant [27 x i8] c"../openssl/apps/s_client.c\00", align 1
@bio_err = external global ptr, align 8
@psk_identity = internal global ptr @.str.539, align 8
@psk_key = external global ptr, align 8
@bio_c_out = internal global ptr null, align 8
@.str.555 = private unnamed_addr constant [15 x i8] c"psk_client_cb\0A\00", align 1
@.str.556 = private unnamed_addr constant [52 x i8] c"NULL received PSK identity hint, continuing anyway\0A\00", align 1
@.str.557 = private unnamed_addr constant [33 x i8] c"Received PSK identity hint '%s'\0A\00", align 1
@.str.558 = private unnamed_addr constant [3 x i8] c"%s\00", align 1
@.str.559 = private unnamed_addr constant [30 x i8] c"created identity '%s' len=%d\0A\00", align 1
@.str.560 = private unnamed_addr constant [42 x i8] c"Could not convert PSK key '%s' to buffer\0A\00", align 1
@.str.561 = private unnamed_addr constant [56 x i8] c"psk buffer of callback is too small (%d) for key (%ld)\0A\00", align 1
@.str.562 = private unnamed_addr constant [21 x i8] c"created PSK len=%ld\0A\00", align 1
@.str.563 = private unnamed_addr constant [30 x i8] c"Error in PSK client callback\0A\00", align 1

; Function Attrs: nounwind uwtable
define internal i32 @psk_client_cb(ptr noundef %0, ptr noundef %1, ptr noundef %2, i32 noundef %3, ptr noundef %4, i32 noundef %5) #0 {
  %7 = alloca i32, align 4
  %8 = alloca ptr, align 8
  %9 = alloca ptr, align 8
  %10 = alloca ptr, align 8
  %11 = alloca i32, align 4
  %12 = alloca ptr, align 8
  %13 = alloca i32, align 4
  %14 = alloca i32, align 4
  %15 = alloca i64, align 8
  %16 = alloca ptr, align 8
  %17 = alloca i32, align 4
  store ptr %0, ptr %8, align 8, !tbaa !13
  store ptr %1, ptr %9, align 8, !tbaa !29
  store ptr %2, ptr %10, align 8, !tbaa !29
  store i32 %3, ptr %11, align 4, !tbaa !4
  store ptr %4, ptr %12, align 8, !tbaa !29
  store i32 %5, ptr %13, align 4, !tbaa !4
  call void @llvm.lifetime.start.p0(i64 4, ptr %14) #10
  call void @llvm.lifetime.start.p0(i64 8, ptr %15) #10
  call void @llvm.lifetime.start.p0(i64 8, ptr %16) #10
  %18 = load i32, ptr @c_debug, align 4, !tbaa !4
  %19 = icmp ne i32 %18, 0
  br i1 %19, label %20, label %23

20:                                               ; preds = %6
  %21 = load ptr, ptr @bio_c_out, align 8, !tbaa !40
  %22 = call i32 (ptr, ptr, ...) @BIO_printf(ptr noundef %21, ptr noundef @.str.555)
  br label %23

23:                                               ; preds = %20, %6
  %24 = load ptr, ptr %9, align 8, !tbaa !29
  %25 = icmp ne ptr %24, null
  br i1 %25, label %33, label %26

26:                                               ; preds = %23
  %27 = load i32, ptr @c_debug, align 4, !tbaa !4
  %28 = icmp ne i32 %27, 0
  br i1 %28, label %29, label %32

29:                                               ; preds = %26
  %30 = load ptr, ptr @bio_c_out, align 8, !tbaa !40
  %31 = call i32 (ptr, ptr, ...) @BIO_printf(ptr noundef %30, ptr noundef @.str.556)
  br label %32

32:                                               ; preds = %29, %26
  br label %41

33:                                               ; preds = %23
  %34 = load i32, ptr @c_debug, align 4, !tbaa !4
  %35 = icmp ne i32 %34, 0
  br i1 %35, label %36, label %40

36:                                               ; preds = %33
  %37 = load ptr, ptr @bio_c_out, align 8, !tbaa !40
  %38 = load ptr, ptr %9, align 8, !tbaa !29
  %39 = call i32 (ptr, ptr, ...) @BIO_printf(ptr noundef %37, ptr noundef @.str.557, ptr noundef %38)
  br label %40

40:                                               ; preds = %36, %33
  br label %41

41:                                               ; preds = %40, %32
  %42 = load ptr, ptr %10, align 8, !tbaa !29
  %43 = load i32, ptr %11, align 4, !tbaa !4
  %44 = zext i32 %43 to i64
  %45 = load ptr, ptr @psk_identity, align 8, !tbaa !29
  %46 = call i32 (ptr, i64, ptr, ...) @BIO_snprintf(ptr noundef %42, i64 noundef %44, ptr noundef @.str.558, ptr noundef %45)
  store i32 %46, ptr %14, align 4, !tbaa !4
  %47 = load i32, ptr %14, align 4, !tbaa !4
  %48 = icmp slt i32 %47, 0
  br i1 %48, label %53, label %49

49:                                               ; preds = %41
  %50 = load i32, ptr %14, align 4, !tbaa !4
  %51 = load i32, ptr %11, align 4, !tbaa !4
  %52 = icmp ugt i32 %50, %51
  br i1 %52, label %53, label %54

53:                                               ; preds = %49, %41
  br label %99

54:                                               ; preds = %49
  %55 = load i32, ptr @c_debug, align 4, !tbaa !4
  %56 = icmp ne i32 %55, 0
  br i1 %56, label %57, label %62

57:                                               ; preds = %54
  %58 = load ptr, ptr @bio_c_out, align 8, !tbaa !40
  %59 = load ptr, ptr %10, align 8, !tbaa !29
  %60 = load i32, ptr %14, align 4, !tbaa !4
  %61 = call i32 (ptr, ptr, ...) @BIO_printf(ptr noundef %58, ptr noundef @.str.559, ptr noundef %59, i32 noundef %60)
  br label %62

62:                                               ; preds = %57, %54
  %63 = load ptr, ptr @psk_key, align 8, !tbaa !29
  %64 = call ptr @OPENSSL_hexstr2buf(ptr noundef %63, ptr noundef %15)
  store ptr %64, ptr %16, align 8, !tbaa !29
  %65 = load ptr, ptr %16, align 8, !tbaa !29
  %66 = icmp eq ptr %65, null
  br i1 %66, label %67, label %71

67:                                               ; preds = %62
  %68 = load ptr, ptr @bio_err, align 8, !tbaa !40
  %69 = load ptr, ptr @psk_key, align 8, !tbaa !29
  %70 = call i32 (ptr, ptr, ...) @BIO_printf(ptr noundef %68, ptr noundef @.str.560, ptr noundef %69)
  store i32 0, ptr %7, align 4
  store i32 1, ptr %17, align 4
  br label %106

71:                                               ; preds = %62
  %72 = load i32, ptr %13, align 4, !tbaa !4
  %73 = icmp ugt i32 %72, 2147483647
  br i1 %73, label %79, label %74

74:                                               ; preds = %71
  %75 = load i64, ptr %15, align 8, !tbaa !35
  %76 = load i32, ptr %13, align 4, !tbaa !4
  %77 = zext i32 %76 to i64
  %78 = icmp sgt i64 %75, %77
  br i1 %78, label %79, label %85

79:                                               ; preds = %74, %71
  %80 = load ptr, ptr @bio_err, align 8, !tbaa !40
  %81 = load i32, ptr %13, align 4, !tbaa !4
  %82 = load i64, ptr %15, align 8, !tbaa !35
  %83 = call i32 (ptr, ptr, ...) @BIO_printf(ptr noundef %80, ptr noundef @.str.561, i32 noundef %81, i64 noundef %82)
  %84 = load ptr, ptr %16, align 8, !tbaa !29
  call void @CRYPTO_free(ptr noundef %84, ptr noundef @.str.396, i32 noundef 182)
  store i32 0, ptr %7, align 4
  store i32 1, ptr %17, align 4
  br label %106

85:                                               ; preds = %74
  %86 = load ptr, ptr %12, align 8, !tbaa !29
  %87 = load ptr, ptr %16, align 8, !tbaa !29
  %88 = load i64, ptr %15, align 8, !tbaa !35
  call void @llvm.memcpy.p0.p0.i64(ptr align 1 %86, ptr align 1 %87, i64 %88, i1 false)
  %89 = load ptr, ptr %16, align 8, !tbaa !29
  call void @CRYPTO_free(ptr noundef %89, ptr noundef @.str.396, i32 noundef 187)
  %90 = load i32, ptr @c_debug, align 4, !tbaa !4
  %91 = icmp ne i32 %90, 0
  br i1 %91, label %92, label %96

92:                                               ; preds = %85
  %93 = load ptr, ptr @bio_c_out, align 8, !tbaa !40
  %94 = load i64, ptr %15, align 8, !tbaa !35
  %95 = call i32 (ptr, ptr, ...) @BIO_printf(ptr noundef %93, ptr noundef @.str.562, i64 noundef %94)
  br label %96

96:                                               ; preds = %92, %85
  %97 = load i64, ptr %15, align 8, !tbaa !35
  %98 = trunc i64 %97 to i32
  store i32 %98, ptr %7, align 4
  store i32 1, ptr %17, align 4
  br label %106

99:                                               ; preds = %53
  %100 = load i32, ptr @c_debug, align 4, !tbaa !4
  %101 = icmp ne i32 %100, 0
  br i1 %101, label %102, label %105

102:                                              ; preds = %99
  %103 = load ptr, ptr @bio_err, align 8, !tbaa !40
  %104 = call i32 (ptr, ptr, ...) @BIO_printf(ptr noundef %103, ptr noundef @.str.563)
  br label %105

105:                                              ; preds = %102, %99
  store i32 0, ptr %7, align 4
  store i32 1, ptr %17, align 4
  br label %106

106:                                              ; preds = %105, %96, %79, %67
  call void @llvm.lifetime.end.p0(i64 8, ptr %16) #10
  call void @llvm.lifetime.end.p0(i64 8, ptr %15) #10
  call void @llvm.lifetime.end.p0(i64 4, ptr %14) #10
  %107 = load i32, ptr %7, align 4
  ret i32 %107
}