; Function Attrs: nounwind uwtable
define internal i32 @psk_client_cb(ptr readnone captures(none) %0, ptr noundef %1, ptr noundef %2, i32 noundef %3, ptr noundef writeonly captures(none) %4, i32 noundef %5) #0 {
  %7 = alloca i64, align 8
  call void @llvm.lifetime.start.p0(i64 8, ptr nonnull %7) #15
  %.b26 = load i1, ptr @c_debug, align 4
  br i1 %.b26, label %8, label %11

8:                                                ; preds = %6
  %9 = load ptr, ptr @bio_c_out, align 8, !tbaa !19
  %10 = tail call i32 (ptr, ptr, ...) @BIO_printf(ptr noundef %9, ptr noundef nonnull @.str.555) #15
  br label %11

11:                                               ; preds = %8, %6
  %.not = icmp eq ptr %1, null
  %.b25 = load i1, ptr @c_debug, align 4
  br i1 %.not, label %12, label %16

12:                                               ; preds = %11
  br i1 %.b25, label %13, label %20

13:                                               ; preds = %12
  %14 = load ptr, ptr @bio_c_out, align 8, !tbaa !19
  %15 = tail call i32 (ptr, ptr, ...) @BIO_printf(ptr noundef %14, ptr noundef nonnull @.str.556) #15
  br label %20

16:                                               ; preds = %11
  br i1 %.b25, label %17, label %20

17:                                               ; preds = %16
  %18 = load ptr, ptr @bio_c_out, align 8, !tbaa !19
  %19 = tail call i32 (ptr, ptr, ...) @BIO_printf(ptr noundef %18, ptr noundef nonnull @.str.557, ptr noundef nonnull %1) #15
  br label %20

20:                                               ; preds = %16, %17, %12, %13
  %21 = zext i32 %3 to i64
  %22 = load ptr, ptr @psk_identity, align 8, !tbaa !11
  %23 = tail call i32 (ptr, i64, ptr, ...) @BIO_snprintf(ptr noundef %2, i64 noundef %21, ptr noundef nonnull @.str.558, ptr noundef %22) #15
  %24 = icmp slt i32 %23, 0
  %25 = icmp ugt i32 %23, %3
  %or.cond = or i1 %24, %25
  %.b = load i1, ptr @c_debug, align 4
  br i1 %or.cond, label %53, label %26

26:                                               ; preds = %20
  br i1 %.b, label %27, label %30

27:                                               ; preds = %26
  %28 = load ptr, ptr @bio_c_out, align 8, !tbaa !19
  %29 = tail call i32 (ptr, ptr, ...) @BIO_printf(ptr noundef %28, ptr noundef nonnull @.str.559, ptr noundef %2, i32 noundef %23) #15
  br label %30

30:                                               ; preds = %27, %26
  %31 = load ptr, ptr @psk_key, align 8, !tbaa !11
  %32 = call ptr @OPENSSL_hexstr2buf(ptr noundef %31, ptr noundef nonnull %7) #15
  %33 = icmp eq ptr %32, null
  br i1 %33, label %34, label %38

34:                                               ; preds = %30
  %35 = load ptr, ptr @bio_err, align 8, !tbaa !19
  %36 = load ptr, ptr @psk_key, align 8, !tbaa !11
  %37 = call i32 (ptr, ptr, ...) @BIO_printf(ptr noundef %35, ptr noundef nonnull @.str.560, ptr noundef %36) #15
  br label %57

38:                                               ; preds = %30
  %39 = icmp slt i32 %5, 0
  %.pre = load i64, ptr %7, align 8, !tbaa !17
  %40 = zext nneg i32 %5 to i64
  %41 = icmp sgt i64 %.pre, %40
  %or.cond28 = select i1 %39, i1 true, i1 %41
  br i1 %or.cond28, label %42, label %45

42:                                               ; preds = %38
  %43 = load ptr, ptr @bio_err, align 8, !tbaa !19
  %44 = call i32 (ptr, ptr, ...) @BIO_printf(ptr noundef %43, ptr noundef nonnull @.str.561, i32 noundef %5, i64 noundef %.pre) #15
  call void @CRYPTO_free(ptr noundef nonnull %32, ptr noundef nonnull @.str.396, i32 noundef 182) #15
  br label %57

45:                                               ; preds = %38
  call void @llvm.memcpy.p0.p0.i64(ptr align 1 %4, ptr nonnull align 1 %32, i64 %.pre, i1 false)
  call void @CRYPTO_free(ptr noundef nonnull %32, ptr noundef nonnull @.str.396, i32 noundef 187) #15
  %.b22 = load i1, ptr @c_debug, align 4
  br i1 %.b22, label %46, label %50

46:                                               ; preds = %45
  %47 = load ptr, ptr @bio_c_out, align 8, !tbaa !19
  %48 = load i64, ptr %7, align 8, !tbaa !17
  %49 = call i32 (ptr, ptr, ...) @BIO_printf(ptr noundef %47, ptr noundef nonnull @.str.562, i64 noundef %48) #15
  br label %50

50:                                               ; preds = %46, %45
  %51 = load i64, ptr %7, align 8, !tbaa !17
  %52 = trunc i64 %51 to i32
  br label %57

53:                                               ; preds = %20
  br i1 %.b, label %54, label %57

54:                                               ; preds = %53
  %55 = load ptr, ptr @bio_err, align 8, !tbaa !19
  %56 = tail call i32 (ptr, ptr, ...) @BIO_printf(ptr noundef %55, ptr noundef nonnull @.str.563) #15
  br label %57

57:                                               ; preds = %53, %54, %50, %42, %34
  %.0 = phi i32 [ 0, %34 ], [ 0, %42 ], [ %52, %50 ], [ 0, %54 ], [ 0, %53 ]
  call void @llvm.lifetime.end.p0(i64 8, ptr nonnull %7) #15
  ret i32 %.0
}